target datalayout = "e-m:e-p270:32:32-p271:32:32-p272:64:64-i64:64-i128:128-f80:128-n8:16:32:64-S128"
target triple = "x86_64-pc-linux-gnu"

%struct.Rectangle = type { float, float, float, float }
%struct.Color = type { i8, i8, i8, i8 }

; Function Attrs: nounwind uwtable
define void @DrawRectangleGradientV(i32 noundef %0, i32 noundef %1, i32 noundef %2, i32 noundef %3, i32 %4, i32 %5) #0 {
  %7 = alloca %struct.Color, align 1
  %8 = alloca %struct.Color, align 1
  %9 = alloca i32, align 4
  %10 = alloca i32, align 4
  %11 = alloca i32, align 4
  %12 = alloca i32, align 4
  %13 = alloca %struct.Rectangle, align 4
  store i32 %4, ptr %7, align 1
  store i32 %5, ptr %8, align 1
  store i32 %0, ptr %9, align 4
  store i32 %1, ptr %10, align 4
  store i32 %2, ptr %11, align 4
  store i32 %3, ptr %12, align 4
  %14 = getelementptr inbounds nuw %struct.Rectangle, ptr %13, i32 0, i32 0
  %15 = load i32, ptr %9, align 4
  %16 = sitofp i32 %15 to float
  store float %16, ptr %14, align 4
  %17 = getelementptr inbounds nuw %struct.Rectangle, ptr %13, i32 0, i32 1
  %18 = load i32, ptr %10, align 4
  %19 = sitofp i32 %18 to float
  store float %19, ptr %17, align 4
  %20 = getelementptr inbounds nuw %struct.Rectangle, ptr %13, i32 0, i32 2
  %21 = load i32, ptr %11, align 4
  %22 = sitofp i32 %21 to float
  store float %22, ptr %20, align 4
  %23 = getelementptr inbounds nuw %struct.Rectangle, ptr %13, i32 0, i32 3
  %24 = load i32, ptr %12, align 4
  %25 = sitofp i32 %24 to float
  store float %25, ptr %23, align 4
  %26 = getelementptr inbounds nuw { <2 x float>, <2 x float> }, ptr %13, i32 0, i32 0
  %27 = load <2 x float>, ptr %26, align 4
  %28 = getelementptr inbounds nuw { <2 x float>, <2 x float> }, ptr %13, i32 0, i32 1
  %29 = load <2 x float>, ptr %28, align 4
  %30 = load i32, ptr %7, align 1
  %31 = load i32, ptr %8, align 1
  %32 = load i32, ptr %8, align 1
  %33 = load i32, ptr %7, align 1
  call void @DrawRectangleGradientEx(<2 x float> %27, <2 x float> %29, i32 %30, i32 %31, i32 %32, i32 %33)
  ret void
}