; Function Attrs: nounwind uwtable
define void @DrawRectangleGradientV(i32 noundef %0, i32 noundef %1, i32 noundef %2, i32 noundef %3, i32 %4, i32 %5) local_unnamed_addr #4 {
  %7 = sitofp i32 %0 to float
  %.sroa.0.0.vec.insert = insertelement <2 x float> poison, float %7, i64 0
  %8 = sitofp i32 %1 to float
  %.sroa.0.4.vec.insert = insertelement <2 x float> %.sroa.0.0.vec.insert, float %8, i64 1
  %9 = sitofp i32 %2 to float
  %.sroa.3.8.vec.insert = insertelement <2 x float> poison, float %9, i64 0
  %10 = sitofp i32 %3 to float
  %.sroa.3.12.vec.insert = insertelement <2 x float> %.sroa.3.8.vec.insert, float %10, i64 1
  tail call void @DrawRectangleGradientEx(<2 x float> %.sroa.0.4.vec.insert, <2 x float> %.sroa.3.12.vec.insert, i32 %4, i32 %5, i32 %5, i32 %4)
  ret void
}